target datalayout = "e-m:e-p270:32:32-p271:32:32-p272:64:64-i64:64-i128:128-f80:128-n8:16:32:64-S128"
target triple = "x86_64-pc-linux-gnu"

%struct.ULocaleData = type { i8, ptr, ptr }

@_ZZ26ulocdata_getExemplarSet_77E16exemplarSetTypes = internal constant [4 x ptr] [ptr @.str.1, ptr @.str.2, ptr @.str.3, ptr @.str.4], align 16

; Function Attrs: inlinehint mustprogress nounwind uwtable
define internal noundef signext i8 @_ZL9U_FAILURE10UErrorCode(i32 noundef %0) #2 {
  %2 = alloca i32, align 4
  store i32 %0, ptr %2, align 4, !tbaa !15
  %3 = load i32, ptr %2, align 4, !tbaa !15
  %4 = icmp sgt i32 %3, 0
  %5 = zext i1 %4 to i8
  ret i8 %5
}

; Function Attrs: mustprogress uwtable
define ptr @ulocdata_getExemplarSet_77(ptr noundef %0, ptr noundef %1, i32 noundef %2, i32 noundef %3, ptr noundef %4) #1 {
  %6 = alloca ptr, align 8
  %7 = alloca ptr, align 8
  %8 = alloca ptr, align 8
  %9 = alloca i32, align 4
  %10 = alloca i32, align 4
  %11 = alloca ptr, align 8
  %12 = alloca ptr, align 8
  %13 = alloca i32, align 4
  %14 = alloca i32, align 4
  %15 = alloca i32, align 4
  store ptr %0, ptr %7, align 8, !tbaa !23
  store ptr %1, ptr %8, align 8, !tbaa !31
  store i32 %2, ptr %9, align 4, !tbaa !14
  store i32 %3, ptr %10, align 4, !tbaa !33
  store ptr %4, ptr %11, align 8, !tbaa !22
  call void @llvm.lifetime.start.p0(i64 8, ptr %12) #9
  store ptr null, ptr %12, align 8, !tbaa !35
  call void @llvm.lifetime.start.p0(i64 4, ptr %13) #9
  store i32 0, ptr %13, align 4, !tbaa !14
  call void @llvm.lifetime.start.p0(i64 4, ptr %14) #9
  store i32 0, ptr %14, align 4, !tbaa !15
  %16 = load ptr, ptr %11, align 8, !tbaa !22
  %17 = load i32, ptr %16, align 4, !tbaa !15
  %18 = call noundef signext i8 @_ZL9U_FAILURE10UErrorCode(i32 noundef %17)
  %19 = icmp ne i8 %18, 0
  br i1 %19, label %20, label %21

20:                                               ; preds = %5
  store ptr null, ptr %6, align 8
  store i32 1, ptr %15, align 4
  br label %70

21:                                               ; preds = %5
  %22 = load ptr, ptr %7, align 8, !tbaa !23
  %23 = getelementptr inbounds nuw %struct.ULocaleData, ptr %22, i32 0, i32 1
  %24 = load ptr, ptr %23, align 8, !tbaa !29
  %25 = load i32, ptr %10, align 4, !tbaa !33
  %26 = zext i32 %25 to i64
  %27 = getelementptr inbounds nuw [4 x ptr], ptr @_ZZ26ulocdata_getExemplarSet_77E16exemplarSetTypes, i64 0, i64 %26
  %28 = load ptr, ptr %27, align 8, !tbaa !17
  %29 = call ptr @ures_getStringByKey_77(ptr noundef %24, ptr noundef %28, ptr noundef %13, ptr noundef %14)
  store ptr %29, ptr %12, align 8, !tbaa !35
  %30 = load i32, ptr %14, align 4, !tbaa !15
  %31 = icmp eq i32 %30, -127
  br i1 %31, label %32, label %38

32:                                               ; preds = %21
  %33 = load ptr, ptr %7, align 8, !tbaa !23
  %34 = getelementptr inbounds nuw %struct.ULocaleData, ptr %33, i32 0, i32 0
  %35 = load i8, ptr %34, align 8, !tbaa !28
  %36 = icmp ne i8 %35, 0
  br i1 %36, label %37, label %38

37:                                               ; preds = %32
  store i32 2, ptr %14, align 4, !tbaa !15
  br label %38

38:                                               ; preds = %37, %32, %21
  %39 = load i32, ptr %14, align 4, !tbaa !15
  %40 = icmp ne i32 %39, 0
  br i1 %40, label %41, label %44

41:                                               ; preds = %38
  %42 = load i32, ptr %14, align 4, !tbaa !15
  %43 = load ptr, ptr %11, align 8, !tbaa !22
  store i32 %42, ptr %43, align 4, !tbaa !15
  br label %44

44:                                               ; preds = %41, %38
  %45 = load ptr, ptr %11, align 8, !tbaa !22
  %46 = load i32, ptr %45, align 4, !tbaa !15
  %47 = call noundef signext i8 @_ZL9U_FAILURE10UErrorCode(i32 noundef %46)
  %48 = icmp ne i8 %47, 0
  br i1 %48, label %49, label %50

49:                                               ; preds = %44
  store ptr null, ptr %6, align 8
  store i32 1, ptr %15, align 4
  br label %70

50:                                               ; preds = %44
  %51 = load ptr, ptr %8, align 8, !tbaa !31
  %52 = icmp ne ptr %51, null
  br i1 %52, label %53, label %61

53:                                               ; preds = %50
  %54 = load ptr, ptr %8, align 8, !tbaa !31
  %55 = load ptr, ptr %12, align 8, !tbaa !35
  %56 = load i32, ptr %13, align 4, !tbaa !14
  %57 = load i32, ptr %9, align 4, !tbaa !14
  %58 = or i32 1, %57
  %59 = load ptr, ptr %11, align 8, !tbaa !22
  %60 = call i32 @uset_applyPattern_77(ptr noundef %54, ptr noundef %55, i32 noundef %56, i32 noundef %58, ptr noundef %59)
  br label %68

61:                                               ; preds = %50
  %62 = load ptr, ptr %12, align 8, !tbaa !35
  %63 = load i32, ptr %13, align 4, !tbaa !14
  %64 = load i32, ptr %9, align 4, !tbaa !14
  %65 = or i32 1, %64
  %66 = load ptr, ptr %11, align 8, !tbaa !22
  %67 = call ptr @uset_openPatternOptions_77(ptr noundef %62, i32 noundef %63, i32 noundef %65, ptr noundef %66)
  store ptr %67, ptr %8, align 8, !tbaa !31
  br label %68

68:                                               ; preds = %61, %53
  %69 = load ptr, ptr %8, align 8, !tbaa !31
  store ptr %69, ptr %6, align 8
  store i32 1, ptr %15, align 4
  br label %70

70:                                               ; preds = %68, %49, %20
  call void @llvm.lifetime.end.p0(i64 4, ptr %14) #9
  call void @llvm.lifetime.end.p0(i64 4, ptr %13) #9
  call void @llvm.lifetime.end.p0(i64 8, ptr %12) #9
  %71 = load ptr, ptr %6, align 8
  ret ptr %71
}