; Function Attrs: mustprogress uwtable
define ptr @ulocdata_getExemplarSet_77(ptr noundef readonly captures(none) %0, ptr noundef %1, i32 noundef %2, i32 noundef %3, ptr noundef %4) local_unnamed_addr #1 {
  %6 = alloca i32, align 4
  %7 = alloca i32, align 4
  call void @llvm.lifetime.start.p0(i64 4, ptr nonnull %6) #13
  store i32 0, ptr %6, align 4, !tbaa !12
  call void @llvm.lifetime.start.p0(i64 4, ptr nonnull %7) #13
  store i32 0, ptr %7, align 4, !tbaa !13
  %8 = load i32, ptr %4, align 4, !tbaa !13
  %9 = icmp slt i32 %8, 1
  br i1 %9, label %10, label %32

10:                                               ; preds = %5
  %11 = getelementptr inbounds nuw i8, ptr %0, i64 8
  %12 = load ptr, ptr %11, align 8, !tbaa !19
  %13 = zext i32 %3 to i64
  %14 = getelementptr inbounds nuw [4 x ptr], ptr @_ZZ26ulocdata_getExemplarSet_77E16exemplarSetTypes, i64 0, i64 %13
  %15 = load ptr, ptr %14, align 8, !tbaa !20
  %16 = call ptr @ures_getStringByKey_77(ptr noundef %12, ptr noundef %15, ptr noundef nonnull %6, ptr noundef nonnull %7)
  %17 = load i32, ptr %7, align 4, !tbaa !13
  switch i32 %17, label %.thread [
    i32 -127, label %18
    i32 0, label %._crit_edge
  ]

._crit_edge:                                      ; preds = %10
  %.pre = load i32, ptr %4, align 4, !tbaa !13
  br label %22

18:                                               ; preds = %10
  %19 = load i8, ptr %0, align 8, !tbaa !18
  %.not18 = icmp eq i8 %19, 0
  br i1 %.not18, label %.thread, label %20

20:                                               ; preds = %18
  store i32 2, ptr %7, align 4, !tbaa !13
  br label %.thread

.thread:                                          ; preds = %10, %18, %20
  %21 = phi i32 [ -127, %18 ], [ 2, %20 ], [ %17, %10 ]
  store i32 %21, ptr %4, align 4, !tbaa !13
  br label %22

22:                                               ; preds = %._crit_edge, %.thread
  %23 = phi i32 [ %.pre, %._crit_edge ], [ %21, %.thread ]
  %24 = icmp slt i32 %23, 1
  br i1 %24, label %25, label %32

25:                                               ; preds = %22
  %.not21 = icmp eq ptr %1, null
  %26 = load i32, ptr %6, align 4, !tbaa !12
  %27 = or i32 %2, 1
  br i1 %.not21, label %30, label %28

28:                                               ; preds = %25
  %29 = call i32 @uset_applyPattern_77(ptr noundef nonnull %1, ptr noundef %16, i32 noundef %26, i32 noundef %27, ptr noundef nonnull %4)
  br label %32

30:                                               ; preds = %25
  %31 = call ptr @uset_openPatternOptions_77(ptr noundef %16, i32 noundef %26, i32 noundef %27, ptr noundef nonnull %4)
  br label %32

32:                                               ; preds = %28, %30, %22, %5
  %.0 = phi ptr [ null, %5 ], [ null, %22 ], [ %1, %28 ], [ %31, %30 ]
  call void @llvm.lifetime.end.p0(i64 4, ptr nonnull %7) #13
  call void @llvm.lifetime.end.p0(i64 4, ptr nonnull %6) #13
  ret ptr %.0
}